;
; Definition file of fmod.dll
; Automatic generated by gendef 1.1
; written by Kai Tietz 2008
; The def file has to be processed by --kill-at (-k) option of dlltool or ld
;
LIBRARY "fmod.dll"
EXPORTS
?addDSP@ChannelControl@FMOD@@QEAA?AW4FMOD_RESULT@@HPEAVDSP@2@@Z
?addFadePoint@ChannelControl@FMOD@@QEAA?AW4FMOD_RESULT@@_KM@Z
?addGroup@ChannelGroup@FMOD@@QEAA?AW4FMOD_RESULT@@PEAV12@_NPEAPEAVDSPConnection@2@@Z
?addInput@DSP@FMOD@@QEAA?AW4FMOD_RESULT@@PEAV12@PEAPEAVDSPConnection@2@W4FMOD_DSPCONNECTION_TYPE@@@Z
?addPolygon@Geometry@FMOD@@QEAA?AW4FMOD_RESULT@@MM_NHPEBUFMOD_VECTOR@@PEAH@Z
?addSyncPoint@Sound@FMOD@@QEAA?AW4FMOD_RESULT@@IIPEBDPEAPEAUFMOD_SYNCPOINT@@@Z
?attachChannelGroupToPort@System@FMOD@@QEAA?AW4FMOD_RESULT@@W4FMOD_PORT_TYPE@@_KPEAVChannelGroup@2@_N@Z
?attachFileSystem@System@FMOD@@QEAA?AW4FMOD_RESULT@@P6A?AW43@PEBDPEAIPEAPEAXPEAX@ZP6A?AW43@33@ZP6A?AW43@33I13@ZP6A?AW43@3I3@Z@Z
?close@System@FMOD@@QEAA?AW4FMOD_RESULT@@XZ
?createChannelGroup@System@FMOD@@QEAA?AW4FMOD_RESULT@@PEBDPEAPEAVChannelGroup@2@@Z
?createClientProfile@SystemI@FMOD@@QEAA?AW4FMOD_RESULT@@XZ
?createDSP@System@FMOD@@QEAA?AW4FMOD_RESULT@@PEBUFMOD_DSP_DESCRIPTION@@PEAPEAVDSP@2@@Z
?createDSPByPlugin@System@FMOD@@QEAA?AW4FMOD_RESULT@@IPEAPEAVDSP@2@@Z
?createDSPByType@System@FMOD@@QEAA?AW4FMOD_RESULT@@W4FMOD_DSP_TYPE@@PEAPEAVDSP@2@@Z
?createDiskFile@SystemI@FMOD@@QEAA?AW4FMOD_RESULT@@PEBDPEAUFMOD_CREATESOUNDEXINFO@@PEAPEAVFile@2@PEA_N@Z
?createGeometry@System@FMOD@@QEAA?AW4FMOD_RESULT@@HHPEAPEAVGeometry@2@@Z
?createMemoryFile@SystemI@FMOD@@QEAA?AW4FMOD_RESULT@@PEAPEAVFile@2@@Z
?createReverb3D@System@FMOD@@QEAA?AW4FMOD_RESULT@@PEAPEAVReverb3D@2@@Z
?createSound@System@FMOD@@QEAA?AW4FMOD_RESULT@@PEBDIPEAUFMOD_CREATESOUNDEXINFO@@PEAPEAVSound@2@@Z
?createSoundGroup@System@FMOD@@QEAA?AW4FMOD_RESULT@@PEBDPEAPEAVSoundGroup@2@@Z
?createStream@System@FMOD@@QEAA?AW4FMOD_RESULT@@PEBDIPEAUFMOD_CREATESOUNDEXINFO@@PEAPEAVSound@2@@Z
?deleteSyncPoint@Sound@FMOD@@QEAA?AW4FMOD_RESULT@@PEAUFMOD_SYNCPOINT@@@Z
?detachChannelGroupFromPort@System@FMOD@@QEAA?AW4FMOD_RESULT@@PEAVChannelGroup@2@@Z
?disconnectAll@DSP@FMOD@@QEAA?AW4FMOD_RESULT@@_N0@Z
?disconnectFrom@DSP@FMOD@@QEAA?AW4FMOD_RESULT@@PEAV12@PEAVDSPConnection@2@@Z
?get3DAttributes@ChannelControl@FMOD@@QEAA?AW4FMOD_RESULT@@PEAUFMOD_VECTOR@@0@Z
?get3DAttributes@Reverb3D@FMOD@@QEAA?AW4FMOD_RESULT@@PEAUFMOD_VECTOR@@PEAM1@Z
?get3DConeOrientation@ChannelControl@FMOD@@QEAA?AW4FMOD_RESULT@@PEAUFMOD_VECTOR@@@Z
?get3DConeSettings@ChannelControl@FMOD@@QEAA?AW4FMOD_RESULT@@PEAM00@Z
?get3DConeSettings@Sound@FMOD@@QEAA?AW4FMOD_RESULT@@PEAM00@Z
?get3DCustomRolloff@ChannelControl@FMOD@@QEAA?AW4FMOD_RESULT@@PEAPEAUFMOD_VECTOR@@PEAH@Z
?get3DCustomRolloff@Sound@FMOD@@QEAA?AW4FMOD_RESULT@@PEAPEAUFMOD_VECTOR@@PEAH@Z
?get3DDistanceFilter@ChannelControl@FMOD@@QEAA?AW4FMOD_RESULT@@PEA_NPEAM1@Z
?get3DDopplerLevel@ChannelControl@FMOD@@QEAA?AW4FMOD_RESULT@@PEAM@Z
?get3DLevel@ChannelControl@FMOD@@QEAA?AW4FMOD_RESULT@@PEAM@Z
?get3DListenerAttributes@System@FMOD@@QEAA?AW4FMOD_RESULT@@HPEAUFMOD_VECTOR@@000@Z
?get3DMinMaxDistance@ChannelControl@FMOD@@QEAA?AW4FMOD_RESULT@@PEAM0@Z
?get3DMinMaxDistance@Sound@FMOD@@QEAA?AW4FMOD_RESULT@@PEAM0@Z
?get3DNumListeners@System@FMOD@@QEAA?AW4FMOD_RESULT@@PEAH@Z
?get3DOcclusion@ChannelControl@FMOD@@QEAA?AW4FMOD_RESULT@@PEAM0@Z
?get3DSettings@System@FMOD@@QEAA?AW4FMOD_RESULT@@PEAM00@Z
?get3DSpread@ChannelControl@FMOD@@QEAA?AW4FMOD_RESULT@@PEAM@Z
?getActive@DSP@FMOD@@QEAA?AW4FMOD_RESULT@@PEA_N@Z
?getActive@Geometry@FMOD@@QEAA?AW4FMOD_RESULT@@PEA_N@Z
?getActive@Reverb3D@FMOD@@QEAA?AW4FMOD_RESULT@@PEA_N@Z
?getAdvancedSettings@System@FMOD@@QEAA?AW4FMOD_RESULT@@PEAUFMOD_ADVANCEDSETTINGS@@@Z
?getAudibility@ChannelControl@FMOD@@QEAA?AW4FMOD_RESULT@@PEAM@Z
?getBypass@DSP@FMOD@@QEAA?AW4FMOD_RESULT@@PEA_N@Z
?getCPUUsage@DSP@FMOD@@QEAA?AW4FMOD_RESULT@@PEAI0@Z
?getCPUUsage@System@FMOD@@QEAA?AW4FMOD_RESULT@@PEAUFMOD_CPU_USAGE@@@Z
?getChannel@ChannelGroup@FMOD@@QEAA?AW4FMOD_RESULT@@HPEAPEAVChannel@2@@Z
?getChannel@System@FMOD@@QEAA?AW4FMOD_RESULT@@HPEAPEAVChannel@2@@Z
?getChannelFormat@DSP@FMOD@@QEAA?AW4FMOD_RESULT@@PEAIPEAHPEAW4FMOD_SPEAKERMODE@@@Z
?getChannelGroup@Channel@FMOD@@QEAA?AW4FMOD_RESULT@@PEAPEAVChannelGroup@2@@Z
?getChannelsPlaying@System@FMOD@@QEAA?AW4FMOD_RESULT@@PEAH0@Z
?getCurrentSound@Channel@FMOD@@QEAA?AW4FMOD_RESULT@@PEAPEAVSound@2@@Z
?getDSP@ChannelControl@FMOD@@QEAA?AW4FMOD_RESULT@@HPEAPEAVDSP@2@@Z
?getDSPBufferSize@System@FMOD@@QEAA?AW4FMOD_RESULT@@PEAIPEAH@Z
?getDSPClock@ChannelControl@FMOD@@QEAA?AW4FMOD_RESULT@@PEA_K0@Z
?getDSPIndex@ChannelControl@FMOD@@QEAA?AW4FMOD_RESULT@@PEAVDSP@2@PEAH@Z
?getDSPInfoByPlugin@System@FMOD@@QEAA?AW4FMOD_RESULT@@IPEAPEBUFMOD_DSP_DESCRIPTION@@@Z
?getDSPInfoByType@System@FMOD@@QEAA?AW4FMOD_RESULT@@W4FMOD_DSP_TYPE@@PEAPEBUFMOD_DSP_DESCRIPTION@@@Z
?getDataParameterIndex@DSP@FMOD@@QEAA?AW4FMOD_RESULT@@HPEAH@Z
?getDefaultMixMatrix@System@FMOD@@QEAA?AW4FMOD_RESULT@@W4FMOD_SPEAKERMODE@@0PEAMH@Z
?getDefaults@Sound@FMOD@@QEAA?AW4FMOD_RESULT@@PEAMPEAH@Z
?getDelay@ChannelControl@FMOD@@QEAA?AW4FMOD_RESULT@@PEA_K0PEA_N@Z
?getDriver@System@FMOD@@QEAA?AW4FMOD_RESULT@@PEAH@Z
?getDriverInfo@System@FMOD@@QEAA?AW4FMOD_RESULT@@HPEADHPEAUFMOD_GUID@@PEAHPEAW4FMOD_SPEAKERMODE@@2@Z
?getFadePoints@ChannelControl@FMOD@@QEAA?AW4FMOD_RESULT@@PEAIPEA_KPEAM@Z
?getFileUsage@System@FMOD@@QEAA?AW4FMOD_RESULT@@PEA_J00@Z
?getFormat@Sound@FMOD@@QEAA?AW4FMOD_RESULT@@PEAW4FMOD_SOUND_TYPE@@PEAW4FMOD_SOUND_FORMAT@@PEAH2@Z
?getFrequency@Channel@FMOD@@QEAA?AW4FMOD_RESULT@@PEAM@Z
?getGeometryOcclusion@System@FMOD@@QEAA?AW4FMOD_RESULT@@PEBUFMOD_VECTOR@@0PEAM1@Z
?getGeometrySettings@System@FMOD@@QEAA?AW4FMOD_RESULT@@PEAM@Z
?getGlobals@FMOD@@YAXPEAPEAVGlobal@1@@Z
?getGroup@ChannelGroup@FMOD@@QEAA?AW4FMOD_RESULT@@HPEAPEAV12@@Z
?getIdle@DSP@FMOD@@QEAA?AW4FMOD_RESULT@@PEA_N@Z
?getIndex@Channel@FMOD@@QEAA?AW4FMOD_RESULT@@PEAH@Z
?getInfo@DSP@FMOD@@QEAA?AW4FMOD_RESULT@@PEADPEAIPEAH22@Z
?getInput@DSP@FMOD@@QEAA?AW4FMOD_RESULT@@HPEAPEAV12@PEAPEAVDSPConnection@2@@Z
?getInput@DSPConnection@FMOD@@QEAA?AW4FMOD_RESULT@@PEAPEAVDSP@2@@Z
?getLength@Sound@FMOD@@QEAA?AW4FMOD_RESULT@@PEAII@Z
?getLoopCount@Channel@FMOD@@QEAA?AW4FMOD_RESULT@@PEAH@Z
?getLoopCount@Sound@FMOD@@QEAA?AW4FMOD_RESULT@@PEAH@Z
?getLoopPoints@Channel@FMOD@@QEAA?AW4FMOD_RESULT@@PEAII0I@Z
?getLoopPoints@Sound@FMOD@@QEAA?AW4FMOD_RESULT@@PEAII0I@Z
?getLowPassGain@ChannelControl@FMOD@@QEAA?AW4FMOD_RESULT@@PEAM@Z
?getMasterChannelGroup@System@FMOD@@QEAA?AW4FMOD_RESULT@@PEAPEAVChannelGroup@2@@Z
?getMasterSoundGroup@System@FMOD@@QEAA?AW4FMOD_RESULT@@PEAPEAVSoundGroup@2@@Z
?getMaxAudible@SoundGroup@FMOD@@QEAA?AW4FMOD_RESULT@@PEAH@Z
?getMaxAudibleBehavior@SoundGroup@FMOD@@QEAA?AW4FMOD_RESULT@@PEAW4FMOD_SOUNDGROUP_BEHAVIOR@@@Z
?getMaxPolygons@Geometry@FMOD@@QEAA?AW4FMOD_RESULT@@PEAH0@Z
?getMeteringEnabled@DSP@FMOD@@QEAA?AW4FMOD_RESULT@@PEA_N0@Z
?getMeteringInfo@DSP@FMOD@@QEAA?AW4FMOD_RESULT@@PEAUFMOD_DSP_METERING_INFO@@0@Z
?getMix@DSPConnection@FMOD@@QEAA?AW4FMOD_RESULT@@PEAM@Z
?getMixMatrix@ChannelControl@FMOD@@QEAA?AW4FMOD_RESULT@@PEAMPEAH1H@Z
?getMixMatrix@DSPConnection@FMOD@@QEAA?AW4FMOD_RESULT@@PEAMPEAH1H@Z
?getMode@ChannelControl@FMOD@@QEAA?AW4FMOD_RESULT@@PEAI@Z
?getMode@Sound@FMOD@@QEAA?AW4FMOD_RESULT@@PEAI@Z
?getMusicChannelVolume@Sound@FMOD@@QEAA?AW4FMOD_RESULT@@HPEAM@Z
?getMusicNumChannels@Sound@FMOD@@QEAA?AW4FMOD_RESULT@@PEAH@Z
?getMusicSpeed@Sound@FMOD@@QEAA?AW4FMOD_RESULT@@PEAM@Z
?getMute@ChannelControl@FMOD@@QEAA?AW4FMOD_RESULT@@PEA_N@Z
?getMuteFadeSpeed@SoundGroup@FMOD@@QEAA?AW4FMOD_RESULT@@PEAM@Z
?getName@ChannelGroup@FMOD@@QEAA?AW4FMOD_RESULT@@PEADH@Z
?getName@Sound@FMOD@@QEAA?AW4FMOD_RESULT@@PEADH@Z
?getName@SoundGroup@FMOD@@QEAA?AW4FMOD_RESULT@@PEADH@Z
?getNestedPlugin@System@FMOD@@QEAA?AW4FMOD_RESULT@@IHPEAI@Z
?getNetworkProxy@System@FMOD@@QEAA?AW4FMOD_RESULT@@PEADH@Z
?getNetworkTimeout@System@FMOD@@QEAA?AW4FMOD_RESULT@@PEAH@Z
?getNumChannels@ChannelGroup@FMOD@@QEAA?AW4FMOD_RESULT@@PEAH@Z
?getNumDSPs@ChannelControl@FMOD@@QEAA?AW4FMOD_RESULT@@PEAH@Z
?getNumDrivers@System@FMOD@@QEAA?AW4FMOD_RESULT@@PEAH@Z
?getNumGroups@ChannelGroup@FMOD@@QEAA?AW4FMOD_RESULT@@PEAH@Z
?getNumInputs@DSP@FMOD@@QEAA?AW4FMOD_RESULT@@PEAH@Z
?getNumNestedPlugins@System@FMOD@@QEAA?AW4FMOD_RESULT@@IPEAH@Z
?getNumOutputs@DSP@FMOD@@QEAA?AW4FMOD_RESULT@@PEAH@Z
?getNumParameters@DSP@FMOD@@QEAA?AW4FMOD_RESULT@@PEAH@Z
?getNumPlaying@SoundGroup@FMOD@@QEAA?AW4FMOD_RESULT@@PEAH@Z
?getNumPlugins@System@FMOD@@QEAA?AW4FMOD_RESULT@@W4FMOD_PLUGINTYPE@@PEAH@Z
?getNumPolygons@Geometry@FMOD@@QEAA?AW4FMOD_RESULT@@PEAH@Z
?getNumSounds@SoundGroup@FMOD@@QEAA?AW4FMOD_RESULT@@PEAH@Z
?getNumSubSounds@Sound@FMOD@@QEAA?AW4FMOD_RESULT@@PEAH@Z
?getNumSyncPoints@Sound@FMOD@@QEAA?AW4FMOD_RESULT@@PEAH@Z
?getNumTags@Sound@FMOD@@QEAA?AW4FMOD_RESULT@@PEAH0@Z
?getOpenState@Sound@FMOD@@QEAA?AW4FMOD_RESULT@@PEAW4FMOD_OPENSTATE@@PEAIPEA_N2@Z
?getOutput@DSP@FMOD@@QEAA?AW4FMOD_RESULT@@HPEAPEAV12@PEAPEAVDSPConnection@2@@Z
?getOutput@DSPConnection@FMOD@@QEAA?AW4FMOD_RESULT@@PEAPEAVDSP@2@@Z
?getOutput@System@FMOD@@QEAA?AW4FMOD_RESULT@@PEAW4FMOD_OUTPUTTYPE@@@Z
?getOutputByPlugin@System@FMOD@@QEAA?AW4FMOD_RESULT@@PEAI@Z
?getOutputChannelFormat@DSP@FMOD@@QEAA?AW4FMOD_RESULT@@IHW4FMOD_SPEAKERMODE@@PEAIPEAHPEAW44@@Z
?getOutputHandle@System@FMOD@@QEAA?AW4FMOD_RESULT@@PEAPEAX@Z
?getParameterBool@DSP@FMOD@@QEAA?AW4FMOD_RESULT@@HPEA_NPEADH@Z
?getParameterData@DSP@FMOD@@QEAA?AW4FMOD_RESULT@@HPEAPEAXPEAIPEADH@Z
?getParameterFloat@DSP@FMOD@@QEAA?AW4FMOD_RESULT@@HPEAMPEADH@Z
?getParameterInfo@DSP@FMOD@@QEAA?AW4FMOD_RESULT@@HPEAPEAUFMOD_DSP_PARAMETER_DESC@@@Z
?getParameterInt@DSP@FMOD@@QEAA?AW4FMOD_RESULT@@HPEAHPEADH@Z
?getParentGroup@ChannelGroup@FMOD@@QEAA?AW4FMOD_RESULT@@PEAPEAV12@@Z
?getPaused@ChannelControl@FMOD@@QEAA?AW4FMOD_RESULT@@PEA_N@Z
?getPitch@ChannelControl@FMOD@@QEAA?AW4FMOD_RESULT@@PEAM@Z
?getPluginHandle@System@FMOD@@QEAA?AW4FMOD_RESULT@@W4FMOD_PLUGINTYPE@@HPEAI@Z
?getPluginInfo@System@FMOD@@QEAA?AW4FMOD_RESULT@@IPEAW4FMOD_PLUGINTYPE@@PEADHPEAI@Z
?getPolygonAttributes@Geometry@FMOD@@QEAA?AW4FMOD_RESULT@@HPEAM0PEA_N@Z
?getPolygonNumVertices@Geometry@FMOD@@QEAA?AW4FMOD_RESULT@@HPEAH@Z
?getPolygonVertex@Geometry@FMOD@@QEAA?AW4FMOD_RESULT@@HHPEAUFMOD_VECTOR@@@Z
?getPosition@Channel@FMOD@@QEAA?AW4FMOD_RESULT@@PEAII@Z
?getPosition@Geometry@FMOD@@QEAA?AW4FMOD_RESULT@@PEAUFMOD_VECTOR@@@Z
?getPriority@Channel@FMOD@@QEAA?AW4FMOD_RESULT@@PEAH@Z
?getProperties@Reverb3D@FMOD@@QEAA?AW4FMOD_RESULT@@PEAUFMOD_REVERB_PROPERTIES@@@Z
?getRecordDriverInfo@System@FMOD@@QEAA?AW4FMOD_RESULT@@HPEADHPEAUFMOD_GUID@@PEAHPEAW4FMOD_SPEAKERMODE@@2PEAI@Z
?getRecordNumDrivers@System@FMOD@@QEAA?AW4FMOD_RESULT@@PEAH0@Z
?getRecordPosition@System@FMOD@@QEAA?AW4FMOD_RESULT@@HPEAI@Z
?getReverbProperties@ChannelControl@FMOD@@QEAA?AW4FMOD_RESULT@@HPEAM@Z
?getReverbProperties@System@FMOD@@QEAA?AW4FMOD_RESULT@@HPEAUFMOD_REVERB_PROPERTIES@@@Z
?getRotation@Geometry@FMOD@@QEAA?AW4FMOD_RESULT@@PEAUFMOD_VECTOR@@0@Z
?getScale@Geometry@FMOD@@QEAA?AW4FMOD_RESULT@@PEAUFMOD_VECTOR@@@Z
?getSoftwareChannels@System@FMOD@@QEAA?AW4FMOD_RESULT@@PEAH@Z
?getSoftwareFormat@System@FMOD@@QEAA?AW4FMOD_RESULT@@PEAHPEAW4FMOD_SPEAKERMODE@@0@Z
?getSound@SoundGroup@FMOD@@QEAA?AW4FMOD_RESULT@@HPEAPEAVSound@2@@Z
?getSoundGroup@Sound@FMOD@@QEAA?AW4FMOD_RESULT@@PEAPEAVSoundGroup@2@@Z
?getSpeakerModeChannels@System@FMOD@@QEAA?AW4FMOD_RESULT@@W4FMOD_SPEAKERMODE@@PEAH@Z
?getSpeakerPosition@System@FMOD@@QEAA?AW4FMOD_RESULT@@W4FMOD_SPEAKER@@PEAM1PEA_N@Z
?getStreamBufferSize@System@FMOD@@QEAA?AW4FMOD_RESULT@@PEAI0@Z
?getSubSound@Sound@FMOD@@QEAA?AW4FMOD_RESULT@@HPEAPEAV12@@Z
?getSubSoundParent@Sound@FMOD@@QEAA?AW4FMOD_RESULT@@PEAPEAV12@@Z
?getSyncPoint@Sound@FMOD@@QEAA?AW4FMOD_RESULT@@HPEAPEAUFMOD_SYNCPOINT@@@Z
?getSyncPointInfo@Sound@FMOD@@QEAA?AW4FMOD_RESULT@@PEAUFMOD_SYNCPOINT@@PEADHPEAII@Z
?getSystemObject@ChannelControl@FMOD@@QEAA?AW4FMOD_RESULT@@PEAPEAVSystem@2@@Z
?getSystemObject@DSP@FMOD@@QEAA?AW4FMOD_RESULT@@PEAPEAVSystem@2@@Z
?getSystemObject@Sound@FMOD@@QEAA?AW4FMOD_RESULT@@PEAPEAVSystem@2@@Z
?getSystemObject@SoundGroup@FMOD@@QEAA?AW4FMOD_RESULT@@PEAPEAVSystem@2@@Z
?getTag@Sound@FMOD@@QEAA?AW4FMOD_RESULT@@PEBDHPEAUFMOD_TAG@@@Z
?getType@DSP@FMOD@@QEAA?AW4FMOD_RESULT@@PEAW4FMOD_DSP_TYPE@@@Z
?getType@DSPConnection@FMOD@@QEAA?AW4FMOD_RESULT@@PEAW4FMOD_DSPCONNECTION_TYPE@@@Z
?getUserData@ChannelControl@FMOD@@QEAA?AW4FMOD_RESULT@@PEAPEAX@Z
?getUserData@DSP@FMOD@@QEAA?AW4FMOD_RESULT@@PEAPEAX@Z
?getUserData@DSPConnection@FMOD@@QEAA?AW4FMOD_RESULT@@PEAPEAX@Z
?getUserData@Geometry@FMOD@@QEAA?AW4FMOD_RESULT@@PEAPEAX@Z
?getUserData@GeometryI@FMOD@@QEAA?AW4FMOD_RESULT@@PEAPEAX@Z
?getUserData@Reverb3D@FMOD@@QEAA?AW4FMOD_RESULT@@PEAPEAX@Z
?getUserData@Sound@FMOD@@QEAA?AW4FMOD_RESULT@@PEAPEAX@Z
?getUserData@SoundGroup@FMOD@@QEAA?AW4FMOD_RESULT@@PEAPEAX@Z
?getUserData@System@FMOD@@QEAA?AW4FMOD_RESULT@@PEAPEAX@Z
?getUserDataInternal@SoundI@FMOD@@QEAA?AW4FMOD_RESULT@@PEAPEAX@Z
?getVersion@System@FMOD@@QEAA?AW4FMOD_RESULT@@PEAI0@Z
?getVolume@ChannelControl@FMOD@@QEAA?AW4FMOD_RESULT@@PEAM@Z
?getVolume@SoundGroup@FMOD@@QEAA?AW4FMOD_RESULT@@PEAM@Z
?getVolumeRamp@ChannelControl@FMOD@@QEAA?AW4FMOD_RESULT@@PEA_N@Z
?getWetDryMix@DSP@FMOD@@QEAA?AW4FMOD_RESULT@@PEAM00@Z
?init@System@FMOD@@QEAA?AW4FMOD_RESULT@@HIPEAX@Z
?isPlaying@ChannelControl@FMOD@@QEAA?AW4FMOD_RESULT@@PEA_N@Z
?isRecording@System@FMOD@@QEAA?AW4FMOD_RESULT@@HPEA_N@Z
?isVirtual@Channel@FMOD@@QEAA?AW4FMOD_RESULT@@PEA_N@Z
?loadGeometry@System@FMOD@@QEAA?AW4FMOD_RESULT@@PEBXHPEAPEAVGeometry@2@@Z
?loadPlugin@System@FMOD@@QEAA?AW4FMOD_RESULT@@PEBDPEAII@Z
?lock@Sound@FMOD@@QEAA?AW4FMOD_RESULT@@IIPEAPEAX0PEAI1@Z
?lockDSP@System@FMOD@@QEAA?AW4FMOD_RESULT@@XZ
?mixerResume@System@FMOD@@QEAA?AW4FMOD_RESULT@@XZ
?mixerSuspend@System@FMOD@@QEAA?AW4FMOD_RESULT@@XZ
?playDSP@System@FMOD@@QEAA?AW4FMOD_RESULT@@PEAVDSP@2@PEAVChannelGroup@2@_NPEAPEAVChannel@2@@Z
?playSound@System@FMOD@@QEAA?AW4FMOD_RESULT@@PEAVSound@2@PEAVChannelGroup@2@_NPEAPEAVChannel@2@@Z
?readData@Sound@FMOD@@QEAA?AW4FMOD_RESULT@@PEAXIPEAI@Z
?recordStart@System@FMOD@@QEAA?AW4FMOD_RESULT@@HPEAVSound@2@_N@Z
?recordStop@System@FMOD@@QEAA?AW4FMOD_RESULT@@H@Z
?registerCodec@System@FMOD@@QEAA?AW4FMOD_RESULT@@PEAUFMOD_CODEC_DESCRIPTION@@PEAII@Z
?registerDSP@System@FMOD@@QEAA?AW4FMOD_RESULT@@PEBUFMOD_DSP_DESCRIPTION@@PEAI@Z
?registerOutput@System@FMOD@@QEAA?AW4FMOD_RESULT@@PEBUFMOD_OUTPUT_DESCRIPTION@@PEAI@Z
?release@ChannelGroup@FMOD@@QEAA?AW4FMOD_RESULT@@XZ
?release@DSP@FMOD@@QEAA?AW4FMOD_RESULT@@XZ
?release@Geometry@FMOD@@QEAA?AW4FMOD_RESULT@@XZ
?release@Reverb3D@FMOD@@QEAA?AW4FMOD_RESULT@@XZ
?release@Sound@FMOD@@QEAA?AW4FMOD_RESULT@@XZ
?release@SoundGroup@FMOD@@QEAA?AW4FMOD_RESULT@@XZ
?release@System@FMOD@@QEAA?AW4FMOD_RESULT@@XZ
?removeDSP@ChannelControl@FMOD@@QEAA?AW4FMOD_RESULT@@PEAVDSP@2@@Z
?removeFadePoints@ChannelControl@FMOD@@QEAA?AW4FMOD_RESULT@@_K0@Z
?reset@DSP@FMOD@@QEAA?AW4FMOD_RESULT@@XZ
?save@Geometry@FMOD@@QEAA?AW4FMOD_RESULT@@PEAXPEAH@Z
?seekData@Sound@FMOD@@QEAA?AW4FMOD_RESULT@@I@Z
?set3DAttributes@ChannelControl@FMOD@@QEAA?AW4FMOD_RESULT@@PEBUFMOD_VECTOR@@0@Z
?set3DAttributes@Reverb3D@FMOD@@QEAA?AW4FMOD_RESULT@@PEBUFMOD_VECTOR@@MM@Z
?set3DConeOrientation@ChannelControl@FMOD@@QEAA?AW4FMOD_RESULT@@PEAUFMOD_VECTOR@@@Z
?set3DConeSettings@ChannelControl@FMOD@@QEAA?AW4FMOD_RESULT@@MMM@Z
?set3DConeSettings@Sound@FMOD@@QEAA?AW4FMOD_RESULT@@MMM@Z
?set3DCustomRolloff@ChannelControl@FMOD@@QEAA?AW4FMOD_RESULT@@PEAUFMOD_VECTOR@@H@Z
?set3DCustomRolloff@Sound@FMOD@@QEAA?AW4FMOD_RESULT@@PEAUFMOD_VECTOR@@H@Z
?set3DDistanceFilter@ChannelControl@FMOD@@QEAA?AW4FMOD_RESULT@@_NMM@Z
?set3DDopplerLevel@ChannelControl@FMOD@@QEAA?AW4FMOD_RESULT@@M@Z
?set3DLevel@ChannelControl@FMOD@@QEAA?AW4FMOD_RESULT@@M@Z
?set3DListenerAttributes@System@FMOD@@QEAA?AW4FMOD_RESULT@@HPEBUFMOD_VECTOR@@000@Z
?set3DMinMaxDistance@ChannelControl@FMOD@@QEAA?AW4FMOD_RESULT@@MM@Z
?set3DMinMaxDistance@Sound@FMOD@@QEAA?AW4FMOD_RESULT@@MM@Z
?set3DNumListeners@System@FMOD@@QEAA?AW4FMOD_RESULT@@H@Z
?set3DOcclusion@ChannelControl@FMOD@@QEAA?AW4FMOD_RESULT@@MM@Z
?set3DRolloffCallback@System@FMOD@@QEAA?AW4FMOD_RESULT@@P6AMPEAUFMOD_CHANNELCONTROL@@M@Z@Z
?set3DSettings@System@FMOD@@QEAA?AW4FMOD_RESULT@@MMM@Z
?set3DSpread@ChannelControl@FMOD@@QEAA?AW4FMOD_RESULT@@M@Z
?setActive@DSP@FMOD@@QEAA?AW4FMOD_RESULT@@_N@Z
?setActive@Geometry@FMOD@@QEAA?AW4FMOD_RESULT@@_N@Z
?setActive@Reverb3D@FMOD@@QEAA?AW4FMOD_RESULT@@_N@Z
?setAdvancedSettings@System@FMOD@@QEAA?AW4FMOD_RESULT@@PEAUFMOD_ADVANCEDSETTINGS@@@Z
?setBypass@DSP@FMOD@@QEAA?AW4FMOD_RESULT@@_N@Z
?setCallback@ChannelControl@FMOD@@QEAA?AW4FMOD_RESULT@@P6A?AW43@PEAUFMOD_CHANNELCONTROL@@W4FMOD_CHANNELCONTROL_TYPE@@W4FMOD_CHANNELCONTROL_CALLBACK_TYPE@@PEAX3@Z@Z
?setCallback@DSP@FMOD@@QEAA?AW4FMOD_RESULT@@P6A?AW43@PEAUFMOD_DSP@@W4FMOD_DSP_CALLBACK_TYPE@@PEAX@Z@Z
?setCallback@System@FMOD@@QEAA?AW4FMOD_RESULT@@P6A?AW43@PEAUFMOD_SYSTEM@@IPEAX11@ZI@Z
?setChannelFormat@DSP@FMOD@@QEAA?AW4FMOD_RESULT@@IHW4FMOD_SPEAKERMODE@@@Z
?setChannelGroup@Channel@FMOD@@QEAA?AW4FMOD_RESULT@@PEAVChannelGroup@2@@Z
?setDSPBufferSize@System@FMOD@@QEAA?AW4FMOD_RESULT@@IH@Z
?setDSPIndex@ChannelControl@FMOD@@QEAA?AW4FMOD_RESULT@@PEAVDSP@2@H@Z
?setDefaults@Sound@FMOD@@QEAA?AW4FMOD_RESULT@@MH@Z
?setDelay@ChannelControl@FMOD@@QEAA?AW4FMOD_RESULT@@_K0_N@Z
?setDriver@System@FMOD@@QEAA?AW4FMOD_RESULT@@H@Z
?setFadePointRamp@ChannelControl@FMOD@@QEAA?AW4FMOD_RESULT@@_KM@Z
?setFileSystem@System@FMOD@@QEAA?AW4FMOD_RESULT@@P6A?AW43@PEBDPEAIPEAPEAXPEAX@ZP6A?AW43@33@ZP6A?AW43@33I13@ZP6A?AW43@3I3@ZP6A?AW43@PEAUFMOD_ASYNCREADINFO@@3@Z9H@Z
?setFrequency@Channel@FMOD@@QEAA?AW4FMOD_RESULT@@M@Z
?setGeometrySettings@System@FMOD@@QEAA?AW4FMOD_RESULT@@M@Z
?setInternalCallback@SystemI@FMOD@@QEAA?AW4FMOD_RESULT@@HP6A?AW43@PEAUFMOD_SYSTEM@@IPEAX11@Z1@Z
?setLoopCount@Channel@FMOD@@QEAA?AW4FMOD_RESULT@@H@Z
?setLoopCount@Sound@FMOD@@QEAA?AW4FMOD_RESULT@@H@Z
?setLoopPoints@Channel@FMOD@@QEAA?AW4FMOD_RESULT@@IIII@Z
?setLoopPoints@Sound@FMOD@@QEAA?AW4FMOD_RESULT@@IIII@Z
?setLowPassGain@ChannelControl@FMOD@@QEAA?AW4FMOD_RESULT@@M@Z
?setMaxAudible@SoundGroup@FMOD@@QEAA?AW4FMOD_RESULT@@H@Z
?setMaxAudibleBehavior@SoundGroup@FMOD@@QEAA?AW4FMOD_RESULT@@W4FMOD_SOUNDGROUP_BEHAVIOR@@@Z
?setMeteringEnabled@DSP@FMOD@@QEAA?AW4FMOD_RESULT@@_N0@Z
?setMix@DSPConnection@FMOD@@QEAA?AW4FMOD_RESULT@@M@Z
?setMixLevelsInput@ChannelControl@FMOD@@QEAA?AW4FMOD_RESULT@@PEAMH@Z
?setMixLevelsOutput@ChannelControl@FMOD@@QEAA?AW4FMOD_RESULT@@MMMMMMMM@Z
?setMixMatrix@ChannelControl@FMOD@@QEAA?AW4FMOD_RESULT@@PEAMHHH@Z
?setMixMatrix@DSPConnection@FMOD@@QEAA?AW4FMOD_RESULT@@PEAMHHH@Z
?setMode@ChannelControl@FMOD@@QEAA?AW4FMOD_RESULT@@I@Z
?setMode@Sound@FMOD@@QEAA?AW4FMOD_RESULT@@I@Z
?setMusicChannelVolume@Sound@FMOD@@QEAA?AW4FMOD_RESULT@@HM@Z
?setMusicSpeed@Sound@FMOD@@QEAA?AW4FMOD_RESULT@@M@Z
?setMute@ChannelControl@FMOD@@QEAA?AW4FMOD_RESULT@@_N@Z
?setMuteFadeSpeed@SoundGroup@FMOD@@QEAA?AW4FMOD_RESULT@@M@Z
?setNetworkProxy@System@FMOD@@QEAA?AW4FMOD_RESULT@@PEBD@Z
?setNetworkTimeout@System@FMOD@@QEAA?AW4FMOD_RESULT@@H@Z
?setOutput@System@FMOD@@QEAA?AW4FMOD_RESULT@@W4FMOD_OUTPUTTYPE@@@Z
?setOutputByPlugin@System@FMOD@@QEAA?AW4FMOD_RESULT@@I@Z
?setPan@ChannelControl@FMOD@@QEAA?AW4FMOD_RESULT@@M@Z
?setParameterBool@DSP@FMOD@@QEAA?AW4FMOD_RESULT@@H_N@Z
?setParameterData@DSP@FMOD@@QEAA?AW4FMOD_RESULT@@HPEAXI@Z
?setParameterFloat@DSP@FMOD@@QEAA?AW4FMOD_RESULT@@HM@Z
?setParameterInt@DSP@FMOD@@QEAA?AW4FMOD_RESULT@@HH@Z
?setPaused@ChannelControl@FMOD@@QEAA?AW4FMOD_RESULT@@_N@Z
?setPitch@ChannelControl@FMOD@@QEAA?AW4FMOD_RESULT@@M@Z
?setPluginPath@System@FMOD@@QEAA?AW4FMOD_RESULT@@PEBD@Z
?setPolygonAttributes@Geometry@FMOD@@QEAA?AW4FMOD_RESULT@@HMM_N@Z
?setPolygonVertex@Geometry@FMOD@@QEAA?AW4FMOD_RESULT@@HHPEBUFMOD_VECTOR@@@Z
?setPosition@Channel@FMOD@@QEAA?AW4FMOD_RESULT@@II@Z
?setPosition@Geometry@FMOD@@QEAA?AW4FMOD_RESULT@@PEBUFMOD_VECTOR@@@Z
?setPriority@Channel@FMOD@@QEAA?AW4FMOD_RESULT@@H@Z
?setProperties@Reverb3D@FMOD@@QEAA?AW4FMOD_RESULT@@PEBUFMOD_REVERB_PROPERTIES@@@Z
?setReverbProperties@ChannelControl@FMOD@@QEAA?AW4FMOD_RESULT@@HM@Z
?setReverbProperties@System@FMOD@@QEAA?AW4FMOD_RESULT@@HPEBUFMOD_REVERB_PROPERTIES@@@Z
?setRotation@Geometry@FMOD@@QEAA?AW4FMOD_RESULT@@PEBUFMOD_VECTOR@@0@Z
?setScale@Geometry@FMOD@@QEAA?AW4FMOD_RESULT@@PEBUFMOD_VECTOR@@@Z
?setSoftwareChannels@System@FMOD@@QEAA?AW4FMOD_RESULT@@H@Z
?setSoftwareFormat@System@FMOD@@QEAA?AW4FMOD_RESULT@@HW4FMOD_SPEAKERMODE@@H@Z
?setSoundGroup@Sound@FMOD@@QEAA?AW4FMOD_RESULT@@PEAVSoundGroup@2@@Z
?setSpeakerPosition@System@FMOD@@QEAA?AW4FMOD_RESULT@@W4FMOD_SPEAKER@@MM_N@Z
?setStreamBufferSize@System@FMOD@@QEAA?AW4FMOD_RESULT@@II@Z
?setUserData@ChannelControl@FMOD@@QEAA?AW4FMOD_RESULT@@PEAX@Z
?setUserData@DSP@FMOD@@QEAA?AW4FMOD_RESULT@@PEAX@Z
?setUserData@DSPConnection@FMOD@@QEAA?AW4FMOD_RESULT@@PEAX@Z
?setUserData@Geometry@FMOD@@QEAA?AW4FMOD_RESULT@@PEAX@Z
?setUserData@GeometryI@FMOD@@QEAA?AW4FMOD_RESULT@@PEAX@Z
?setUserData@Reverb3D@FMOD@@QEAA?AW4FMOD_RESULT@@PEAX@Z
?setUserData@Sound@FMOD@@QEAA?AW4FMOD_RESULT@@PEAX@Z
?setUserData@SoundGroup@FMOD@@QEAA?AW4FMOD_RESULT@@PEAX@Z
?setUserData@System@FMOD@@QEAA?AW4FMOD_RESULT@@PEAX@Z
?setUserDataInternal@SoundI@FMOD@@QEAA?AW4FMOD_RESULT@@PEAX@Z
?setVolume@ChannelControl@FMOD@@QEAA?AW4FMOD_RESULT@@M@Z
?setVolume@SoundGroup@FMOD@@QEAA?AW4FMOD_RESULT@@M@Z
?setVolumeRamp@ChannelControl@FMOD@@QEAA?AW4FMOD_RESULT@@_N@Z
?setWetDryMix@DSP@FMOD@@QEAA?AW4FMOD_RESULT@@MMM@Z
?showConfigDialog@DSP@FMOD@@QEAA?AW4FMOD_RESULT@@PEAX_N@Z
?stop@ChannelControl@FMOD@@QEAA?AW4FMOD_RESULT@@XZ
?stop@SoundGroup@FMOD@@QEAA?AW4FMOD_RESULT@@XZ
?unloadPlugin@System@FMOD@@QEAA?AW4FMOD_RESULT@@I@Z
?unlock@Sound@FMOD@@QEAA?AW4FMOD_RESULT@@PEAX0II@Z
?unlockDSP@System@FMOD@@QEAA?AW4FMOD_RESULT@@XZ
?update@System@FMOD@@QEAA?AW4FMOD_RESULT@@XZ
?validate@ChannelI@FMOD@@SA?AW4FMOD_RESULT@@PEAVChannel@2@PEAPEAV12@PEAVSystemLockScope@2@@Z
?validate@DSPI@FMOD@@SA?AW4FMOD_RESULT@@PEAVDSP@2@PEAPEAV12@PEAVSystemLockScope@2@@Z
?validate@SystemI@FMOD@@SA?AW4FMOD_RESULT@@PEAVSystem@2@PEAPEAV12@PEAVSystemLockScope@2@@Z
FMOD5_ChannelGroup_AddDSP
FMOD5_ChannelGroup_AddFadePoint
FMOD5_ChannelGroup_AddGroup
FMOD5_ChannelGroup_Get3DAttributes
FMOD5_ChannelGroup_Get3DConeOrientation
FMOD5_ChannelGroup_Get3DConeSettings
FMOD5_ChannelGroup_Get3DCustomRolloff
FMOD5_ChannelGroup_Get3DDistanceFilter
FMOD5_ChannelGroup_Get3DDopplerLevel
FMOD5_ChannelGroup_Get3DLevel
FMOD5_ChannelGroup_Get3DMinMaxDistance
FMOD5_ChannelGroup_Get3DOcclusion
FMOD5_ChannelGroup_Get3DSpread
FMOD5_ChannelGroup_GetAudibility
FMOD5_ChannelGroup_GetChannel
FMOD5_ChannelGroup_GetDSP
FMOD5_ChannelGroup_GetDSPClock
FMOD5_ChannelGroup_GetDSPIndex
FMOD5_ChannelGroup_GetDelay
FMOD5_ChannelGroup_GetFadePoints
FMOD5_ChannelGroup_GetGroup
FMOD5_ChannelGroup_GetLowPassGain
FMOD5_ChannelGroup_GetMixMatrix
FMOD5_ChannelGroup_GetMode
FMOD5_ChannelGroup_GetMute
FMOD5_ChannelGroup_GetName
FMOD5_ChannelGroup_GetNumChannels
FMOD5_ChannelGroup_GetNumDSPs
FMOD5_ChannelGroup_GetNumGroups
FMOD5_ChannelGroup_GetParentGroup
FMOD5_ChannelGroup_GetPaused
FMOD5_ChannelGroup_GetPitch
FMOD5_ChannelGroup_GetReverbProperties
FMOD5_ChannelGroup_GetSystemObject
FMOD5_ChannelGroup_GetUserData
FMOD5_ChannelGroup_GetVolume
FMOD5_ChannelGroup_GetVolumeRamp
FMOD5_ChannelGroup_IsPlaying
FMOD5_ChannelGroup_Release
FMOD5_ChannelGroup_RemoveDSP
FMOD5_ChannelGroup_RemoveFadePoints
FMOD5_ChannelGroup_Set3DAttributes
FMOD5_ChannelGroup_Set3DConeOrientation
FMOD5_ChannelGroup_Set3DConeSettings
FMOD5_ChannelGroup_Set3DCustomRolloff
FMOD5_ChannelGroup_Set3DDistanceFilter
FMOD5_ChannelGroup_Set3DDopplerLevel
FMOD5_ChannelGroup_Set3DLevel
FMOD5_ChannelGroup_Set3DMinMaxDistance
FMOD5_ChannelGroup_Set3DOcclusion
FMOD5_ChannelGroup_Set3DSpread
FMOD5_ChannelGroup_SetCallback
FMOD5_ChannelGroup_SetDSPIndex
FMOD5_ChannelGroup_SetDelay
FMOD5_ChannelGroup_SetFadePointRamp
FMOD5_ChannelGroup_SetLowPassGain
FMOD5_ChannelGroup_SetMixLevelsInput
FMOD5_ChannelGroup_SetMixLevelsOutput
FMOD5_ChannelGroup_SetMixMatrix
FMOD5_ChannelGroup_SetMode
FMOD5_ChannelGroup_SetMute
FMOD5_ChannelGroup_SetPan
FMOD5_ChannelGroup_SetPaused
FMOD5_ChannelGroup_SetPitch
FMOD5_ChannelGroup_SetReverbProperties
FMOD5_ChannelGroup_SetUserData
FMOD5_ChannelGroup_SetVolume
FMOD5_ChannelGroup_SetVolumeRamp
FMOD5_ChannelGroup_Stop
FMOD5_Channel_AddDSP
FMOD5_Channel_AddFadePoint
FMOD5_Channel_Get3DAttributes
FMOD5_Channel_Get3DConeOrientation
FMOD5_Channel_Get3DConeSettings
FMOD5_Channel_Get3DCustomRolloff
FMOD5_Channel_Get3DDistanceFilter
FMOD5_Channel_Get3DDopplerLevel
FMOD5_Channel_Get3DLevel
FMOD5_Channel_Get3DMinMaxDistance
FMOD5_Channel_Get3DOcclusion
FMOD5_Channel_Get3DSpread
FMOD5_Channel_GetAudibility
FMOD5_Channel_GetChannelGroup
FMOD5_Channel_GetCurrentSound
FMOD5_Channel_GetDSP
FMOD5_Channel_GetDSPClock
FMOD5_Channel_GetDSPIndex
FMOD5_Channel_GetDelay
FMOD5_Channel_GetFadePoints
FMOD5_Channel_GetFrequency
FMOD5_Channel_GetIndex
FMOD5_Channel_GetLoopCount
FMOD5_Channel_GetLoopPoints
FMOD5_Channel_GetLowPassGain
FMOD5_Channel_GetMixMatrix
FMOD5_Channel_GetMode
FMOD5_Channel_GetMute
FMOD5_Channel_GetNumDSPs
FMOD5_Channel_GetPaused
FMOD5_Channel_GetPitch
FMOD5_Channel_GetPosition
FMOD5_Channel_GetPriority
FMOD5_Channel_GetReverbProperties
FMOD5_Channel_GetSystemObject
FMOD5_Channel_GetUserData
FMOD5_Channel_GetVolume
FMOD5_Channel_GetVolumeRamp
FMOD5_Channel_IsPlaying
FMOD5_Channel_IsVirtual
FMOD5_Channel_RemoveDSP
FMOD5_Channel_RemoveFadePoints
FMOD5_Channel_Set3DAttributes
FMOD5_Channel_Set3DConeOrientation
FMOD5_Channel_Set3DConeSettings
FMOD5_Channel_Set3DCustomRolloff
FMOD5_Channel_Set3DDistanceFilter
FMOD5_Channel_Set3DDopplerLevel
FMOD5_Channel_Set3DLevel
FMOD5_Channel_Set3DMinMaxDistance
FMOD5_Channel_Set3DOcclusion
FMOD5_Channel_Set3DSpread
FMOD5_Channel_SetCallback
FMOD5_Channel_SetChannelGroup
FMOD5_Channel_SetDSPIndex
FMOD5_Channel_SetDelay
FMOD5_Channel_SetFadePointRamp
FMOD5_Channel_SetFrequency
FMOD5_Channel_SetLoopCount
FMOD5_Channel_SetLoopPoints
FMOD5_Channel_SetLowPassGain
FMOD5_Channel_SetMixLevelsInput
FMOD5_Channel_SetMixLevelsOutput
FMOD5_Channel_SetMixMatrix
FMOD5_Channel_SetMode
FMOD5_Channel_SetMute
FMOD5_Channel_SetPan
FMOD5_Channel_SetPaused
FMOD5_Channel_SetPitch
FMOD5_Channel_SetPosition
FMOD5_Channel_SetPriority
FMOD5_Channel_SetReverbProperties
FMOD5_Channel_SetUserData
FMOD5_Channel_SetVolume
FMOD5_Channel_SetVolumeRamp
FMOD5_Channel_Stop
FMOD5_DSPConnection_GetInput
FMOD5_DSPConnection_GetMix
FMOD5_DSPConnection_GetMixMatrix
FMOD5_DSPConnection_GetOutput
FMOD5_DSPConnection_GetType
FMOD5_DSPConnection_GetUserData
FMOD5_DSPConnection_SetMix
FMOD5_DSPConnection_SetMixMatrix
FMOD5_DSPConnection_SetUserData
FMOD5_DSP_AddInput
FMOD5_DSP_DisconnectAll
FMOD5_DSP_DisconnectFrom
FMOD5_DSP_GetActive
FMOD5_DSP_GetBypass
FMOD5_DSP_GetCPUUsage
FMOD5_DSP_GetChannelFormat
FMOD5_DSP_GetDataParameterIndex
FMOD5_DSP_GetIdle
FMOD5_DSP_GetInfo
FMOD5_DSP_GetInput
FMOD5_DSP_GetMeteringEnabled
FMOD5_DSP_GetMeteringInfo
FMOD5_DSP_GetNumInputs
FMOD5_DSP_GetNumOutputs
FMOD5_DSP_GetNumParameters
FMOD5_DSP_GetOutput
FMOD5_DSP_GetOutputChannelFormat
FMOD5_DSP_GetParameterBool
FMOD5_DSP_GetParameterData
FMOD5_DSP_GetParameterFloat
FMOD5_DSP_GetParameterInfo
FMOD5_DSP_GetParameterInt
FMOD5_DSP_GetSystemObject
FMOD5_DSP_GetType
FMOD5_DSP_GetUserData
FMOD5_DSP_GetWetDryMix
FMOD5_DSP_Release
FMOD5_DSP_Reset
FMOD5_DSP_SetActive
FMOD5_DSP_SetBypass
FMOD5_DSP_SetCallback
FMOD5_DSP_SetChannelFormat
FMOD5_DSP_SetMeteringEnabled
FMOD5_DSP_SetParameterBool
FMOD5_DSP_SetParameterData
FMOD5_DSP_SetParameterFloat
FMOD5_DSP_SetParameterInt
FMOD5_DSP_SetUserData
FMOD5_DSP_SetWetDryMix
FMOD5_DSP_ShowConfigDialog
FMOD5_Debug_Initialize
FMOD5_File_GetDiskBusy
FMOD5_File_SetDiskBusy
FMOD5_Geometry_AddPolygon
FMOD5_Geometry_GetActive
FMOD5_Geometry_GetMaxPolygons
FMOD5_Geometry_GetNumPolygons
FMOD5_Geometry_GetPolygonAttributes
FMOD5_Geometry_GetPolygonNumVertices
FMOD5_Geometry_GetPolygonVertex
FMOD5_Geometry_GetPosition
FMOD5_Geometry_GetRotation
FMOD5_Geometry_GetScale
FMOD5_Geometry_GetUserData
FMOD5_Geometry_Release
FMOD5_Geometry_Save
FMOD5_Geometry_SetActive
FMOD5_Geometry_SetPolygonAttributes
FMOD5_Geometry_SetPolygonVertex
FMOD5_Geometry_SetPosition
FMOD5_Geometry_SetRotation
FMOD5_Geometry_SetScale
FMOD5_Geometry_SetUserData
FMOD5_Memory_GetStats
FMOD5_Memory_Initialize
FMOD5_Reverb3D_Get3DAttributes
FMOD5_Reverb3D_GetActive
FMOD5_Reverb3D_GetProperties
FMOD5_Reverb3D_GetUserData
FMOD5_Reverb3D_Release
FMOD5_Reverb3D_Set3DAttributes
FMOD5_Reverb3D_SetActive
FMOD5_Reverb3D_SetProperties
FMOD5_Reverb3D_SetUserData
FMOD5_SoundGroup_GetMaxAudible
FMOD5_SoundGroup_GetMaxAudibleBehavior
FMOD5_SoundGroup_GetMuteFadeSpeed
FMOD5_SoundGroup_GetName
FMOD5_SoundGroup_GetNumPlaying
FMOD5_SoundGroup_GetNumSounds
FMOD5_SoundGroup_GetSound
FMOD5_SoundGroup_GetSystemObject
FMOD5_SoundGroup_GetUserData
FMOD5_SoundGroup_GetVolume
FMOD5_SoundGroup_Release
FMOD5_SoundGroup_SetMaxAudible
FMOD5_SoundGroup_SetMaxAudibleBehavior
FMOD5_SoundGroup_SetMuteFadeSpeed
FMOD5_SoundGroup_SetUserData
FMOD5_SoundGroup_SetVolume
FMOD5_SoundGroup_Stop
FMOD5_Sound_AddSyncPoint
FMOD5_Sound_DeleteSyncPoint
FMOD5_Sound_Get3DConeSettings
FMOD5_Sound_Get3DCustomRolloff
FMOD5_Sound_Get3DMinMaxDistance
FMOD5_Sound_GetDefaults
FMOD5_Sound_GetFormat
FMOD5_Sound_GetLength
FMOD5_Sound_GetLoopCount
FMOD5_Sound_GetLoopPoints
FMOD5_Sound_GetMode
FMOD5_Sound_GetMusicChannelVolume
FMOD5_Sound_GetMusicNumChannels
FMOD5_Sound_GetMusicSpeed
FMOD5_Sound_GetName
FMOD5_Sound_GetNumSubSounds
FMOD5_Sound_GetNumSyncPoints
FMOD5_Sound_GetNumTags
FMOD5_Sound_GetOpenState
FMOD5_Sound_GetSoundGroup
FMOD5_Sound_GetSubSound
FMOD5_Sound_GetSubSoundParent
FMOD5_Sound_GetSyncPoint
FMOD5_Sound_GetSyncPointInfo
FMOD5_Sound_GetSystemObject
FMOD5_Sound_GetTag
FMOD5_Sound_GetUserData
FMOD5_Sound_Lock
FMOD5_Sound_ReadData
FMOD5_Sound_Release
FMOD5_Sound_SeekData
FMOD5_Sound_Set3DConeSettings
FMOD5_Sound_Set3DCustomRolloff
FMOD5_Sound_Set3DMinMaxDistance
FMOD5_Sound_SetDefaults
FMOD5_Sound_SetLoopCount
FMOD5_Sound_SetLoopPoints
FMOD5_Sound_SetMode
FMOD5_Sound_SetMusicChannelVolume
FMOD5_Sound_SetMusicSpeed
FMOD5_Sound_SetSoundGroup
FMOD5_Sound_SetUserData
FMOD5_Sound_Unlock
FMOD5_System_AttachChannelGroupToPort
FMOD5_System_AttachFileSystem
FMOD5_System_Close
FMOD5_System_Create
FMOD5_System_CreateChannelGroup
FMOD5_System_CreateDSP
FMOD5_System_CreateDSPByPlugin
FMOD5_System_CreateDSPByType
FMOD5_System_CreateGeometry
FMOD5_System_CreateReverb3D
FMOD5_System_CreateSound
FMOD5_System_CreateSoundGroup
FMOD5_System_CreateStream
FMOD5_System_DetachChannelGroupFromPort
FMOD5_System_Get3DListenerAttributes
FMOD5_System_Get3DNumListeners
FMOD5_System_Get3DSettings
FMOD5_System_GetAdvancedSettings
FMOD5_System_GetCPUUsage
FMOD5_System_GetChannel
FMOD5_System_GetChannelsPlaying
FMOD5_System_GetDSPBufferSize
FMOD5_System_GetDSPInfoByPlugin
FMOD5_System_GetDSPInfoByType
FMOD5_System_GetDefaultMixMatrix
FMOD5_System_GetDriver
FMOD5_System_GetDriverInfo
FMOD5_System_GetFileUsage
FMOD5_System_GetGeometryOcclusion
FMOD5_System_GetGeometrySettings
FMOD5_System_GetMasterChannelGroup
FMOD5_System_GetMasterSoundGroup
FMOD5_System_GetNestedPlugin
FMOD5_System_GetNetworkProxy
FMOD5_System_GetNetworkTimeout
FMOD5_System_GetNumDrivers
FMOD5_System_GetNumNestedPlugins
FMOD5_System_GetNumPlugins
FMOD5_System_GetOutput
FMOD5_System_GetOutputByPlugin
FMOD5_System_GetOutputHandle
FMOD5_System_GetPluginHandle
FMOD5_System_GetPluginInfo
FMOD5_System_GetRecordDriverInfo
FMOD5_System_GetRecordNumDrivers
FMOD5_System_GetRecordPosition
FMOD5_System_GetReverbProperties
FMOD5_System_GetSoftwareChannels
FMOD5_System_GetSoftwareFormat
FMOD5_System_GetSpeakerModeChannels
FMOD5_System_GetSpeakerPosition
FMOD5_System_GetStreamBufferSize
FMOD5_System_GetUserData
FMOD5_System_GetVersion
FMOD5_System_Init
FMOD5_System_IsRecording
FMOD5_System_LoadGeometry
FMOD5_System_LoadPlugin
FMOD5_System_LockDSP
FMOD5_System_MixerResume
FMOD5_System_MixerSuspend
FMOD5_System_PlayDSP
FMOD5_System_PlaySound
FMOD5_System_RecordStart
FMOD5_System_RecordStop
FMOD5_System_RegisterCodec
FMOD5_System_RegisterDSP
FMOD5_System_RegisterOutput
FMOD5_System_Release
FMOD5_System_Set3DListenerAttributes
FMOD5_System_Set3DNumListeners
FMOD5_System_Set3DRolloffCallback
FMOD5_System_Set3DSettings
FMOD5_System_SetAdvancedSettings
FMOD5_System_SetCallback
FMOD5_System_SetDSPBufferSize
FMOD5_System_SetDriver
FMOD5_System_SetFileSystem
FMOD5_System_SetGeometrySettings
FMOD5_System_SetNetworkProxy
FMOD5_System_SetNetworkTimeout
FMOD5_System_SetOutput
FMOD5_System_SetOutputByPlugin
FMOD5_System_SetPluginPath
FMOD5_System_SetReverbProperties
FMOD5_System_SetSoftwareChannels
FMOD5_System_SetSoftwareFormat
FMOD5_System_SetSpeakerPosition
FMOD5_System_SetStreamBufferSize
FMOD5_System_SetUserData
FMOD5_System_UnloadPlugin
FMOD5_System_UnlockDSP
FMOD5_System_Update
FMOD5_Thread_SetAttributes
FMOD_ChannelGroup_AddDSP
FMOD_ChannelGroup_AddFadePoint
FMOD_ChannelGroup_AddGroup
FMOD_ChannelGroup_Get3DAttributes
FMOD_ChannelGroup_Get3DConeOrientation
FMOD_ChannelGroup_Get3DConeSettings
FMOD_ChannelGroup_Get3DCustomRolloff
FMOD_ChannelGroup_Get3DDistanceFilter
FMOD_ChannelGroup_Get3DDopplerLevel
FMOD_ChannelGroup_Get3DLevel
FMOD_ChannelGroup_Get3DMinMaxDistance
FMOD_ChannelGroup_Get3DOcclusion
FMOD_ChannelGroup_Get3DSpread
FMOD_ChannelGroup_GetAudibility
FMOD_ChannelGroup_GetChannel
FMOD_ChannelGroup_GetDSP
FMOD_ChannelGroup_GetDSPClock
FMOD_ChannelGroup_GetDSPIndex
FMOD_ChannelGroup_GetDelay
FMOD_ChannelGroup_GetFadePoints
FMOD_ChannelGroup_GetGroup
FMOD_ChannelGroup_GetLowPassGain
FMOD_ChannelGroup_GetMixMatrix
FMOD_ChannelGroup_GetMode
FMOD_ChannelGroup_GetMute
FMOD_ChannelGroup_GetName
FMOD_ChannelGroup_GetNumChannels
FMOD_ChannelGroup_GetNumDSPs
FMOD_ChannelGroup_GetNumGroups
FMOD_ChannelGroup_GetParentGroup
FMOD_ChannelGroup_GetPaused
FMOD_ChannelGroup_GetPitch
FMOD_ChannelGroup_GetReverbProperties
FMOD_ChannelGroup_GetSystemObject
FMOD_ChannelGroup_GetUserData
FMOD_ChannelGroup_GetVolume
FMOD_ChannelGroup_GetVolumeRamp
FMOD_ChannelGroup_IsPlaying
FMOD_ChannelGroup_Release
FMOD_ChannelGroup_RemoveDSP
FMOD_ChannelGroup_RemoveFadePoints
FMOD_ChannelGroup_Set3DAttributes
FMOD_ChannelGroup_Set3DConeOrientation
FMOD_ChannelGroup_Set3DConeSettings
FMOD_ChannelGroup_Set3DCustomRolloff
FMOD_ChannelGroup_Set3DDistanceFilter
FMOD_ChannelGroup_Set3DDopplerLevel
FMOD_ChannelGroup_Set3DLevel
FMOD_ChannelGroup_Set3DMinMaxDistance
FMOD_ChannelGroup_Set3DOcclusion
FMOD_ChannelGroup_Set3DSpread
FMOD_ChannelGroup_SetCallback
FMOD_ChannelGroup_SetDSPIndex
FMOD_ChannelGroup_SetDelay
FMOD_ChannelGroup_SetFadePointRamp
FMOD_ChannelGroup_SetLowPassGain
FMOD_ChannelGroup_SetMixLevelsInput
FMOD_ChannelGroup_SetMixLevelsOutput
FMOD_ChannelGroup_SetMixMatrix
FMOD_ChannelGroup_SetMode
FMOD_ChannelGroup_SetMute
FMOD_ChannelGroup_SetPan
FMOD_ChannelGroup_SetPaused
FMOD_ChannelGroup_SetPitch
FMOD_ChannelGroup_SetReverbProperties
FMOD_ChannelGroup_SetUserData
FMOD_ChannelGroup_SetVolume
FMOD_ChannelGroup_SetVolumeRamp
FMOD_ChannelGroup_Stop
FMOD_Channel_AddDSP
FMOD_Channel_AddFadePoint
FMOD_Channel_Get3DAttributes
FMOD_Channel_Get3DConeOrientation
FMOD_Channel_Get3DConeSettings
FMOD_Channel_Get3DCustomRolloff
FMOD_Channel_Get3DDistanceFilter
FMOD_Channel_Get3DDopplerLevel
FMOD_Channel_Get3DLevel
FMOD_Channel_Get3DMinMaxDistance
FMOD_Channel_Get3DOcclusion
FMOD_Channel_Get3DSpread
FMOD_Channel_GetAudibility
FMOD_Channel_GetChannelGroup
FMOD_Channel_GetCurrentSound
FMOD_Channel_GetDSP
FMOD_Channel_GetDSPClock
FMOD_Channel_GetDSPIndex
FMOD_Channel_GetDelay
FMOD_Channel_GetFadePoints
FMOD_Channel_GetFrequency
FMOD_Channel_GetIndex
FMOD_Channel_GetLoopCount
FMOD_Channel_GetLoopPoints
FMOD_Channel_GetLowPassGain
FMOD_Channel_GetMixMatrix
FMOD_Channel_GetMode
FMOD_Channel_GetMute
FMOD_Channel_GetNumDSPs
FMOD_Channel_GetPaused
FMOD_Channel_GetPitch
FMOD_Channel_GetPosition
FMOD_Channel_GetPriority
FMOD_Channel_GetReverbProperties
FMOD_Channel_GetSystemObject
FMOD_Channel_GetUserData
FMOD_Channel_GetVolume
FMOD_Channel_GetVolumeRamp
FMOD_Channel_IsPlaying
FMOD_Channel_IsVirtual
FMOD_Channel_RemoveDSP
FMOD_Channel_RemoveFadePoints
FMOD_Channel_Set3DAttributes
FMOD_Channel_Set3DConeOrientation
FMOD_Channel_Set3DConeSettings
FMOD_Channel_Set3DCustomRolloff
FMOD_Channel_Set3DDistanceFilter
FMOD_Channel_Set3DDopplerLevel
FMOD_Channel_Set3DLevel
FMOD_Channel_Set3DMinMaxDistance
FMOD_Channel_Set3DOcclusion
FMOD_Channel_Set3DSpread
FMOD_Channel_SetCallback
FMOD_Channel_SetChannelGroup
FMOD_Channel_SetDSPIndex
FMOD_Channel_SetDelay
FMOD_Channel_SetFadePointRamp
FMOD_Channel_SetFrequency
FMOD_Channel_SetLoopCount
FMOD_Channel_SetLoopPoints
FMOD_Channel_SetLowPassGain
FMOD_Channel_SetMixLevelsInput
FMOD_Channel_SetMixLevelsOutput
FMOD_Channel_SetMixMatrix
FMOD_Channel_SetMode
FMOD_Channel_SetMute
FMOD_Channel_SetPan
FMOD_Channel_SetPaused
FMOD_Channel_SetPitch
FMOD_Channel_SetPosition
FMOD_Channel_SetPriority
FMOD_Channel_SetReverbProperties
FMOD_Channel_SetUserData
FMOD_Channel_SetVolume
FMOD_Channel_SetVolumeRamp
FMOD_Channel_Stop
FMOD_DSPConnection_GetInput
FMOD_DSPConnection_GetMix
FMOD_DSPConnection_GetMixMatrix
FMOD_DSPConnection_GetOutput
FMOD_DSPConnection_GetType
FMOD_DSPConnection_GetUserData
FMOD_DSPConnection_SetMix
FMOD_DSPConnection_SetMixMatrix
FMOD_DSPConnection_SetUserData
FMOD_DSP_AddInput
FMOD_DSP_DisconnectAll
FMOD_DSP_DisconnectFrom
FMOD_DSP_GetActive
FMOD_DSP_GetBypass
FMOD_DSP_GetCPUUsage
FMOD_DSP_GetChannelFormat
FMOD_DSP_GetDataParameterIndex
FMOD_DSP_GetIdle
FMOD_DSP_GetInfo
FMOD_DSP_GetInput
FMOD_DSP_GetMeteringEnabled
FMOD_DSP_GetMeteringInfo
FMOD_DSP_GetNumInputs
FMOD_DSP_GetNumOutputs
FMOD_DSP_GetNumParameters
FMOD_DSP_GetOutput
FMOD_DSP_GetOutputChannelFormat
FMOD_DSP_GetParameterBool
FMOD_DSP_GetParameterData
FMOD_DSP_GetParameterFloat
FMOD_DSP_GetParameterInfo
FMOD_DSP_GetParameterInt
FMOD_DSP_GetSystemObject
FMOD_DSP_GetType
FMOD_DSP_GetUserData
FMOD_DSP_GetWetDryMix
FMOD_DSP_Release
FMOD_DSP_Reset
FMOD_DSP_SetActive
FMOD_DSP_SetBypass
FMOD_DSP_SetCallback
FMOD_DSP_SetChannelFormat
FMOD_DSP_SetMeteringEnabled
FMOD_DSP_SetParameterBool
FMOD_DSP_SetParameterData
FMOD_DSP_SetParameterFloat
FMOD_DSP_SetParameterInt
FMOD_DSP_SetUserData
FMOD_DSP_SetWetDryMix
FMOD_DSP_ShowConfigDialog
FMOD_Debug_Initialize
FMOD_File_GetDiskBusy
FMOD_File_SetDiskBusy
FMOD_Geometry_AddPolygon
FMOD_Geometry_GetActive
FMOD_Geometry_GetMaxPolygons
FMOD_Geometry_GetNumPolygons
FMOD_Geometry_GetPolygonAttributes
FMOD_Geometry_GetPolygonNumVertices
FMOD_Geometry_GetPolygonVertex
FMOD_Geometry_GetPosition
FMOD_Geometry_GetRotation
FMOD_Geometry_GetScale
FMOD_Geometry_GetUserData
FMOD_Geometry_Release
FMOD_Geometry_Save
FMOD_Geometry_SetActive
FMOD_Geometry_SetPolygonAttributes
FMOD_Geometry_SetPolygonVertex
FMOD_Geometry_SetPosition
FMOD_Geometry_SetRotation
FMOD_Geometry_SetScale
FMOD_Geometry_SetUserData
FMOD_Memory_GetStats
FMOD_Memory_Initialize
FMOD_OS_CriticalSection_Create
FMOD_OS_CriticalSection_Enter
FMOD_OS_CriticalSection_Free
FMOD_OS_CriticalSection_IsLocked
FMOD_OS_CriticalSection_Leave
FMOD_OS_CriticalSection_TryEnter
FMOD_OS_Debug_Output
FMOD_OS_File_Close
FMOD_OS_File_Open
FMOD_OS_File_Read
FMOD_OS_File_Seek
FMOD_OS_File_Write
FMOD_OS_Thread_Create
FMOD_OS_Thread_Destroy
FMOD_OS_Time_GetUs
FMOD_OS_Time_Sleep
FMOD_Reverb3D_Get3DAttributes
FMOD_Reverb3D_GetActive
FMOD_Reverb3D_GetProperties
FMOD_Reverb3D_GetUserData
FMOD_Reverb3D_Release
FMOD_Reverb3D_Set3DAttributes
FMOD_Reverb3D_SetActive
FMOD_Reverb3D_SetProperties
FMOD_Reverb3D_SetUserData
FMOD_SoundGroup_GetMaxAudible
FMOD_SoundGroup_GetMaxAudibleBehavior
FMOD_SoundGroup_GetMuteFadeSpeed
FMOD_SoundGroup_GetName
FMOD_SoundGroup_GetNumPlaying
FMOD_SoundGroup_GetNumSounds
FMOD_SoundGroup_GetSound
FMOD_SoundGroup_GetSystemObject
FMOD_SoundGroup_GetUserData
FMOD_SoundGroup_GetVolume
FMOD_SoundGroup_Release
FMOD_SoundGroup_SetMaxAudible
FMOD_SoundGroup_SetMaxAudibleBehavior
FMOD_SoundGroup_SetMuteFadeSpeed
FMOD_SoundGroup_SetUserData
FMOD_SoundGroup_SetVolume
FMOD_SoundGroup_Stop
FMOD_Sound_AddSyncPoint
FMOD_Sound_DeleteSyncPoint
FMOD_Sound_Get3DConeSettings
FMOD_Sound_Get3DCustomRolloff
FMOD_Sound_Get3DMinMaxDistance
FMOD_Sound_GetDefaults
FMOD_Sound_GetFormat
FMOD_Sound_GetLength
FMOD_Sound_GetLoopCount
FMOD_Sound_GetLoopPoints
FMOD_Sound_GetMode
FMOD_Sound_GetMusicChannelVolume
FMOD_Sound_GetMusicNumChannels
FMOD_Sound_GetMusicSpeed
FMOD_Sound_GetName
FMOD_Sound_GetNumSubSounds
FMOD_Sound_GetNumSyncPoints
FMOD_Sound_GetNumTags
FMOD_Sound_GetOpenState
FMOD_Sound_GetSoundGroup
FMOD_Sound_GetSubSound
FMOD_Sound_GetSubSoundParent
FMOD_Sound_GetSyncPoint
FMOD_Sound_GetSyncPointInfo
FMOD_Sound_GetSystemObject
FMOD_Sound_GetTag
FMOD_Sound_GetUserData
FMOD_Sound_Lock
FMOD_Sound_ReadData
FMOD_Sound_Release
FMOD_Sound_SeekData
FMOD_Sound_Set3DConeSettings
FMOD_Sound_Set3DCustomRolloff
FMOD_Sound_Set3DMinMaxDistance
FMOD_Sound_SetDefaults
FMOD_Sound_SetLoopCount
FMOD_Sound_SetLoopPoints
FMOD_Sound_SetMode
FMOD_Sound_SetMusicChannelVolume
FMOD_Sound_SetMusicSpeed
FMOD_Sound_SetSoundGroup
FMOD_Sound_SetUserData
FMOD_Sound_Unlock
FMOD_System_AttachChannelGroupToPort
FMOD_System_AttachFileSystem
FMOD_System_Close
FMOD_System_Create
FMOD_System_CreateChannelGroup
FMOD_System_CreateDSP
FMOD_System_CreateDSPByPlugin
FMOD_System_CreateDSPByType
FMOD_System_CreateGeometry
FMOD_System_CreateReverb3D
FMOD_System_CreateSound
FMOD_System_CreateSoundGroup
FMOD_System_CreateStream
FMOD_System_DetachChannelGroupFromPort
FMOD_System_Get3DListenerAttributes
FMOD_System_Get3DNumListeners
FMOD_System_Get3DSettings
FMOD_System_GetAdvancedSettings
FMOD_System_GetCPUUsage
FMOD_System_GetChannel
FMOD_System_GetChannelsPlaying
FMOD_System_GetDSPBufferSize
FMOD_System_GetDSPInfoByPlugin
FMOD_System_GetDSPInfoByType
FMOD_System_GetDefaultMixMatrix
FMOD_System_GetDriver
FMOD_System_GetDriverInfo
FMOD_System_GetFileUsage
FMOD_System_GetGeometryOcclusion
FMOD_System_GetGeometrySettings
FMOD_System_GetMasterChannelGroup
FMOD_System_GetMasterSoundGroup
FMOD_System_GetNestedPlugin
FMOD_System_GetNetworkProxy
FMOD_System_GetNetworkTimeout
FMOD_System_GetNumDrivers
FMOD_System_GetNumNestedPlugins
FMOD_System_GetNumPlugins
FMOD_System_GetOutput
FMOD_System_GetOutputByPlugin
FMOD_System_GetOutputHandle
FMOD_System_GetPluginHandle
FMOD_System_GetPluginInfo
FMOD_System_GetRecordDriverInfo
FMOD_System_GetRecordNumDrivers
FMOD_System_GetRecordPosition
FMOD_System_GetReverbProperties
FMOD_System_GetSoftwareChannels
FMOD_System_GetSoftwareFormat
FMOD_System_GetSpeakerModeChannels
FMOD_System_GetSpeakerPosition
FMOD_System_GetStreamBufferSize
FMOD_System_GetUserData
FMOD_System_GetVersion
FMOD_System_Init
FMOD_System_IsRecording
FMOD_System_LoadGeometry
FMOD_System_LoadPlugin
FMOD_System_LockDSP
FMOD_System_MixerResume
FMOD_System_MixerSuspend
FMOD_System_PlayDSP
FMOD_System_PlaySound
FMOD_System_RecordStart
FMOD_System_RecordStop
FMOD_System_RegisterCodec
FMOD_System_RegisterDSP
FMOD_System_RegisterOutput
FMOD_System_Release
FMOD_System_Set3DListenerAttributes
FMOD_System_Set3DNumListeners
FMOD_System_Set3DRolloffCallback
FMOD_System_Set3DSettings
FMOD_System_SetAdvancedSettings
FMOD_System_SetCallback
FMOD_System_SetDSPBufferSize
FMOD_System_SetDriver
FMOD_System_SetFileSystem
FMOD_System_SetGeometrySettings
FMOD_System_SetNetworkProxy
FMOD_System_SetNetworkTimeout
FMOD_System_SetOutput
FMOD_System_SetOutputByPlugin
FMOD_System_SetPluginPath
FMOD_System_SetReverbProperties
FMOD_System_SetSoftwareChannels
FMOD_System_SetSoftwareFormat
FMOD_System_SetSpeakerPosition
FMOD_System_SetStreamBufferSize
FMOD_System_SetUserData
FMOD_System_UnloadPlugin
FMOD_System_UnlockDSP
FMOD_System_Update
FMOD_Thread_SetAttributes
